(lp0
(lp1
I512
aI513
aa(lp2
I514
aI515
aa(lp3
I516
aI517
aa(lp4
I518
aI519
aa(lp5
I520
aI521
aa(lp6
I522
aI523
aa(lp7
I524
aI525
aa(lp8
I526
aI527
aa(lp9
I528
aI529
aa(lp10
I530
aI531
aa(lp11
I532
aI533
aa(lp12
I534
aI535
aa(lp13
I536
aI537
aa(lp14
I538
aI539
aa(lp15
I540
aI541
aa(lp16
I542
aI543
aa(lp17
I544
aI545
aa(lp18
I546
aI547
aa(lp19
I548
aI549
aa(lp20
I550
aI551
aa(lp21
I552
aI553
aa(lp22
I554
aI555
aa(lp23
I556
aI557
aa(lp24
I558
aI559
aa(lp25
I560
aI561
aa(lp26
I562
aI563
aa(lp27
I564
aI565
aa(lp28
I566
aI567
aa(lp29
I568
aI569
aa(lp30
I570
aI571
aa(lp31
I572
aI573
aa(lp32
I574
aI575
aa(lp33
I576
aI577
aa(lp34
I578
aI579
aa(lp35
I580
aI581
aa(lp36
I582
aI583
aa(lp37
I584
aI585
aa(lp38
I586
aI587
aa(lp39
I588
aI589
aa(lp40
I590
aI591
aa(lp41
I592
aI593
aa(lp42
I594
aI595
aa(lp43
I596
aI597
aa(lp44
I598
aI599
aa(lp45
I600
aI601
aa(lp46
I602
aI603
aa(lp47
I604
aI605
aa(lp48
I606
aI607
aa(lp49
I608
aI609
aa(lp50
I610
aI611
aa(lp51
I612
aI613
aa(lp52
I614
aI615
aa(lp53
I616
aI617
aa(lp54
I618
aI619
aa(lp55
I620
aI621
aa(lp56
I622
aI623
aa(lp57
I624
aI625
aa(lp58
I626
aI627
aa(lp59
I628
aI629
aa(lp60
I630
aI631
aa(lp61
I632
aI633
aa(lp62
I634
aI635
aa(lp63
I636
aI637
aa(lp64
I638
aI639
aa(lp65
I640
aI641
aa(lp66
I642
aI643
aa(lp67
I644
aI645
aa(lp68
I646
aI647
aa(lp69
I648
aI649
aa(lp70
I650
aI651
aa(lp71
I652
aI653
aa(lp72
I654
aI655
aa(lp73
I656
aI657
aa(lp74
I658
aI659
aa(lp75
I660
aI661
aa(lp76
I662
aI663
aa(lp77
I664
aI665
aa(lp78
I666
aI667
aa(lp79
I668
aI669
aa(lp80
I670
aI671
aa(lp81
I672
aI673
aa(lp82
I674
aI675
aa(lp83
I676
aI677
aa(lp84
I678
aI679
aa(lp85
I680
aI681
aa(lp86
I682
aI683
aa(lp87
I684
aI685
aa(lp88
I686
aI687
aa(lp89
I688
aI689
aa(lp90
I690
aI691
aa(lp91
I692
aI693
aa(lp92
I694
aI695
aa(lp93
I696
aI697
aa(lp94
I698
aI699
aa(lp95
I700
aI701
aa(lp96
I702
aI703
aa(lp97
I704
aI705
aa(lp98
I706
aI707
aa(lp99
I708
aI709
aa(lp100
I710
aI711
aa(lp101
I712
aI713
aa(lp102
I714
aI715
aa(lp103
I716
aI717
aa(lp104
I718
aI719
aa(lp105
I720
aI721
aa(lp106
I722
aI723
aa(lp107
I724
aI725
aa(lp108
I726
aI727
aa(lp109
I728
aI729
aa(lp110
I730
aI731
aa(lp111
I732
aI733
aa(lp112
I734
aI735
aa(lp113
I736
aI737
aa(lp114
I738
aI739
aa(lp115
I740
aI741
aa(lp116
I742
aI743
aa(lp117
I744
aI745
aa(lp118
I746
aI747
aa(lp119
I748
aI749
aa(lp120
I750
aI751
aa(lp121
I752
aI753
aa(lp122
I754
aI755
aa(lp123
I756
aI757
aa(lp124
I758
aI759
aa(lp125
I760
aI761
aa(lp126
I762
aI763
aa(lp127
I764
aI765
aa(lp128
I766
aI767
aa(lp129
I768
aI769
aa(lp130
I770
aI771
aa(lp131
I772
aI773
aa(lp132
I774
aI775
aa(lp133
I776
aI777
aa(lp134
I778
aI779
aa(lp135
I780
aI781
aa(lp136
I782
aI783
aa(lp137
I784
aI785
aa(lp138
I786
aI787
aa(lp139
I788
aI789
aa(lp140
I790
aI791
aa(lp141
I792
aI793
aa(lp142
I794
aI795
aa(lp143
I796
aI797
aa(lp144
I798
aI799
aa(lp145
I800
aI801
aa(lp146
I802
aI803
aa(lp147
I804
aI805
aa(lp148
I806
aI807
aa(lp149
I808
aI809
aa(lp150
I810
aI811
aa(lp151
I812
aI813
aa(lp152
I814
aI815
aa(lp153
I816
aI817
aa(lp154
I818
aI819
aa(lp155
I820
aI821
aa(lp156
I822
aI823
aa(lp157
I824
aI825
aa(lp158
I826
aI827
aa(lp159
I828
aI829
aa(lp160
I830
aI831
aa(lp161
I832
aI833
aa(lp162
I834
aI835
aa(lp163
I836
aI837
aa(lp164
I838
aI839
aa(lp165
I840
aI841
aa(lp166
I842
aI843
aa(lp167
I844
aI845
aa(lp168
I846
aI847
aa(lp169
I848
aI849
aa(lp170
I850
aI851
aa(lp171
I852
aI853
aa(lp172
I854
aI855
aa(lp173
I856
aI857
aa(lp174
I858
aI859
aa(lp175
I860
aI861
aa(lp176
I862
aI863
aa(lp177
I864
aI865
aa(lp178
I866
aI867
aa(lp179
I868
aI869
aa(lp180
I870
aI871
aa(lp181
I872
aI873
aa(lp182
I874
aI875
aa(lp183
I876
aI877
aa(lp184
I878
aI879
aa(lp185
I880
aI881
aa(lp186
I882
aI883
aa(lp187
I884
aI885
aa(lp188
I886
aI887
aa(lp189
I888
aI889
aa(lp190
I890
aI891
aa(lp191
I892
aI893
aa(lp192
I894
aI895
aa(lp193
I896
aI897
aa(lp194
I898
aI899
aa(lp195
I900
aI901
aa(lp196
I902
aI903
aa(lp197
I904
aI905
aa(lp198
I906
aI907
aa(lp199
I908
aI909
aa(lp200
I910
aI911
aa(lp201
I912
aI913
aa(lp202
I914
aI915
aa(lp203
I916
aI917
aa(lp204
I918
aI919
aa(lp205
I920
aI921
aa(lp206
I922
aI923
aa(lp207
I924
aI925
aa(lp208
I926
aI927
aa(lp209
I928
aI929
aa(lp210
I930
aI931
aa(lp211
I932
aI933
aa(lp212
I934
aI935
aa(lp213
I936
aI937
aa(lp214
I938
aI939
aa(lp215
I940
aI941
aa(lp216
I942
aI943
aa(lp217
I944
aI945
aa(lp218
I946
aI947
aa(lp219
I948
aI949
aa(lp220
I950
aI951
aa(lp221
I952
aI953
aa(lp222
I954
aI955
aa(lp223
I956
aI957
aa(lp224
I958
aI959
aa(lp225
I960
aI961
aa(lp226
I962
aI963
aa(lp227
I964
aI965
aa(lp228
I966
aI967
aa(lp229
I968
aI969
aa(lp230
I970
aI971
aa(lp231
I972
aI973
aa(lp232
I974
aI975
aa(lp233
I976
aI977
aa(lp234
I978
aI979
aa(lp235
I980
aI981
aa(lp236
I982
aI983
aa(lp237
I984
aI985
aa(lp238
I986
aI987
aa(lp239
I988
aI989
aa(lp240
I990
aI991
aa(lp241
I992
aI993
aa(lp242
I994
aI995
aa(lp243
I996
aI997
aa(lp244
I998
aI999
aa(lp245
I1000
aI1001
aa(lp246
I1002
aI1003
aa(lp247
I1004
aI1005
aa(lp248
I1006
aI1007
aa(lp249
I1008
aI1009
aa(lp250
I1010
aI1011
aa(lp251
I1012
aI1013
aa(lp252
I1014
aI1015
aa(lp253
I1016
aI1017
aa(lp254
I1018
aI1019
aa(lp255
I1020
aI1021
aa(lp256
I1022
aI1023
aa.