ccopy_reg
_reconstructor
p0
(cpandas.core.frame
DataFrame
p1
c__builtin__
object
p2
Ntp3
Rp4
g0
(cpandas.core.internals
BlockManager
p5
g2
Ntp6
Rp7
((lp8
cnumpy.core.multiarray
_reconstruct
p9
(cpandas.core.index
Index
p10
(I0
tp11
S'b'
p12
tp13
Rp14
((I1
(I2
tp15
cnumpy
dtype
p16
(S'O8'
p17
I0
I1
tp18
Rp19
(I3
S'|'
p20
NNNI-1
I-1
I63
tp21
bI00
(lp22
S'station'
p23
aS'id'
p24
atp25
(Ntp26
tp27
bag9
(cpandas.core.index
Int64Index
p28
(I0
tp29
g12
tp30
Rp31
((I1
(I5
tp32
g16
(S'i8'
p33
I0
I1
tp34
Rp35
(I3
S'<'
p36
NNNI-1
I-1
I0
tp37
bI00
S'\xd3U\x00\x00\x00\x00\x00\x00\xd2U\x00\x00\x00\x00\x00\x00\xe0J\x00\x00\x00\x00\x00\x00\xdfJ\x00\x00\x00\x00\x00\x00\xa2Y\x00\x00\x00\x00\x00\x00'
p38
tp39
(Ntp40
tp41
ba(lp42
g9
(cnumpy
ndarray
p43
(I0
tp44
g12
tp45
Rp46
(I1
(I1
I5
tp47
g35
I00
S'\x00\x00\x00\x00\x00\x00\x00\x00\x00\x00\x00\x00\x00\x00\x00\x00\x00\x00\x00\x00\x00\x00\x00\x00\x00\x00\x00\x00\x00\x00\x00\x00\x00\x00\x00\x00\x00\x00\x00\x00'
p48
tp49
bag9
(g43
(I0
tp50
g12
tp51
Rp52
(I1
(I1
I5
tp53
g19
I00
(lp54
S'AYW00068701'
p55
aS'AYW00067601'
p56
aS'NZ000939870'
p57
aS'NZ000093994'
p58
aS'TN000091780'
p59
atp60
ba(lp61
g9
(g10
(I0
tp62
g12
tp63
Rp64
((I1
(I1
tp65
g19
I00
(lp66
g24
atp67
(Ntp68
tp69
bag9
(g10
(I0
tp70
g12
tp71
Rp72
((I1
(I1
tp73
g19
I00
(lp74
g23
atp75
(Ntp76
tp77
batp78
bb.